target datalayout = "e-m:e-p270:32:32-p271:32:32-p272:64:64-i64:64-i128:128-f80:128-n8:16:32:64-S128"
target triple = "x86_64-pc-linux-gnu"

@.str.425 = private unnamed_addr constant [33 x i8] c"unknown socket level option name\00", align 1
@.str.426 = private unnamed_addr constant [29 x i8] c"unknown IP level option name\00", align 1
@.str.427 = private unnamed_addr constant [31 x i8] c"unknown IPv6 level option name\00", align 1
@.str.428 = private unnamed_addr constant [30 x i8] c"unknown TCP level option name\00", align 1
@.str.429 = private unnamed_addr constant [30 x i8] c"unknown UDP level option name\00", align 1

; Function Attrs: inlinehint nounwind sspstrong willreturn memory(none) uwtable
define internal zeroext i1 @RB_FIXNUM_P(i64 noundef %0) #6 {
  %2 = alloca i64, align 8
  store i64 %0, ptr %2, align 8, !tbaa !11
  %3 = load i64, ptr %2, align 8, !tbaa !11
  %4 = and i64 %3, 1
  %5 = icmp ne i64 %4, 0
  ret i1 %5
}

; Function Attrs: inlinehint nounwind sspstrong uwtable
define internal i32 @rb_num2int_inline(i64 noundef %0) #4 {
  %2 = alloca i64, align 8
  %3 = alloca i64, align 8
  store i64 %0, ptr %2, align 8, !tbaa !11
  call void @llvm.lifetime.start.p0(i64 8, ptr %3) #11
  %4 = load i64, ptr %2, align 8, !tbaa !11
  %5 = call zeroext i1 @RB_FIXNUM_P(i64 noundef %4) #12
  br i1 %5, label %6, label %9

6:                                                ; preds = %1
  %7 = load i64, ptr %2, align 8, !tbaa !11
  %8 = call i64 @rb_fix2int(i64 noundef %7)
  store i64 %8, ptr %3, align 8, !tbaa !11
  br label %12

9:                                                ; preds = %1
  %10 = load i64, ptr %2, align 8, !tbaa !11
  %11 = call i64 @rb_num2int(i64 noundef %10)
  store i64 %11, ptr %3, align 8, !tbaa !11
  br label %12

12:                                               ; preds = %9, %6
  %13 = load i64, ptr %3, align 8, !tbaa !11
  %14 = trunc i64 %13 to i32
  call void @llvm.lifetime.end.p0(i64 8, ptr %3) #11
  ret i32 %14
}

; Function Attrs: nounwind sspstrong uwtable
define i32 @rsock_optname_arg(i32 noundef %0, i32 noundef %1, i64 noundef %2) #0 {
  %4 = alloca i32, align 4
  %5 = alloca i32, align 4
  %6 = alloca i32, align 4
  %7 = alloca i64, align 8
  store i32 %0, ptr %5, align 4, !tbaa !15
  store i32 %1, ptr %6, align 4, !tbaa !15
  store i64 %2, ptr %7, align 8, !tbaa !11
  %8 = load i32, ptr %5, align 4, !tbaa !15
  %9 = icmp eq i32 %8, 2
  br i1 %9, label %13, label %10

10:                                               ; preds = %3
  %11 = load i32, ptr %5, align 4, !tbaa !15
  %12 = icmp eq i32 %11, 10
  br i1 %12, label %13, label %33

13:                                               ; preds = %10, %3
  %14 = load i32, ptr %6, align 4, !tbaa !15
  switch i32 %14, label %30 [
    i32 1, label %15
    i32 0, label %18
    i32 41, label %21
    i32 6, label %24
    i32 17, label %27
  ]

15:                                               ; preds = %13
  %16 = load i64, ptr %7, align 8, !tbaa !11
  %17 = call i32 @constant_arg(i64 noundef %16, ptr noundef @rsock_so_optname_to_int, ptr noundef @.str.425)
  store i32 %17, ptr %4, align 4
  br label %41

18:                                               ; preds = %13
  %19 = load i64, ptr %7, align 8, !tbaa !11
  %20 = call i32 @constant_arg(i64 noundef %19, ptr noundef @rsock_ip_optname_to_int, ptr noundef @.str.426)
  store i32 %20, ptr %4, align 4
  br label %41

21:                                               ; preds = %13
  %22 = load i64, ptr %7, align 8, !tbaa !11
  %23 = call i32 @constant_arg(i64 noundef %22, ptr noundef @rsock_ipv6_optname_to_int, ptr noundef @.str.427)
  store i32 %23, ptr %4, align 4
  br label %41

24:                                               ; preds = %13
  %25 = load i64, ptr %7, align 8, !tbaa !11
  %26 = call i32 @constant_arg(i64 noundef %25, ptr noundef @rsock_tcp_optname_to_int, ptr noundef @.str.428)
  store i32 %26, ptr %4, align 4
  br label %41

27:                                               ; preds = %13
  %28 = load i64, ptr %7, align 8, !tbaa !11
  %29 = call i32 @constant_arg(i64 noundef %28, ptr noundef @rsock_udp_optname_to_int, ptr noundef @.str.429)
  store i32 %29, ptr %4, align 4
  br label %41

30:                                               ; preds = %13
  %31 = load i64, ptr %7, align 8, !tbaa !11
  %32 = call i32 @rb_num2int_inline(i64 noundef %31)
  store i32 %32, ptr %4, align 4
  br label %41

33:                                               ; preds = %10
  %34 = load i32, ptr %6, align 4, !tbaa !15
  switch i32 %34, label %38 [
    i32 1, label %35
  ]

35:                                               ; preds = %33
  %36 = load i64, ptr %7, align 8, !tbaa !11
  %37 = call i32 @constant_arg(i64 noundef %36, ptr noundef @rsock_so_optname_to_int, ptr noundef @.str.425)
  store i32 %37, ptr %4, align 4
  br label %41

38:                                               ; preds = %33
  %39 = load i64, ptr %7, align 8, !tbaa !11
  %40 = call i32 @rb_num2int_inline(i64 noundef %39)
  store i32 %40, ptr %4, align 4
  br label %41

41:                                               ; preds = %38, %35, %30, %27, %24, %21, %18, %15
  %42 = load i32, ptr %4, align 4
  ret i32 %42
}